; ModuleID = '29/1184.c'
source_filename = "29/1184.c"
target datalayout = "e-m:e-p270:32:32-p271:32:32-p272:64:64-i64:64-f80:128-n8:16:32:64-S128"
target triple = "x86_64-pc-linux-gnu"

@.str = private unnamed_addr constant [3 x i8] c"%d\00", align 1
@.str.1 = private unnamed_addr constant [7 x i8] c"%.3lf\0A\00", align 1

; Function Attrs: noinline nounwind uwtable
define dso_local i32 @main() #0 {
  %1 = alloca i32, align 4
  %2 = alloca i32, align 4
  %3 = alloca i32, align 4
  %4 = alloca i32, align 4
  %5 = alloca [10000 x i32], align 16
  %6 = alloca [10000 x double], align 16
  %7 = alloca [10000 x double], align 16
  store i32 0, i32* %1, align 4
  %8 = call i32 (i8*, ...) @__isoc99_scanf(i8* getelementptr inbounds ([3 x i8], [3 x i8]* @.str, i64 0, i64 0), i32* %2)
  store i32 0, i32* %3, align 4
  br label %9

9:                                                ; preds = %67, %0
  %10 = load i32, i32* %3, align 4
  %11 = load i32, i32* %2, align 4
  %12 = icmp slt i32 %10, %11
  br i1 %12, label %13, label %70

13:                                               ; preds = %9
  %14 = load i32, i32* %3, align 4
  %15 = sext i32 %14 to i64
  %16 = getelementptr inbounds [10000 x i32], [10000 x i32]* %5, i64 0, i64 %15
  %17 = call i32 (i8*, ...) @__isoc99_scanf(i8* getelementptr inbounds ([3 x i8], [3 x i8]* @.str, i64 0, i64 0), i32* %16)
  %18 = load i32, i32* %3, align 4
  %19 = sext i32 %18 to i64
  %20 = getelementptr inbounds [10000 x double], [10000 x double]* %6, i64 0, i64 %19
  store double 0.000000e+00, double* %20, align 8
  store i32 2, i32* %4, align 4
  br label %21

21:                                               ; preds = %63, %13
  %22 = load i32, i32* %4, align 4
  %23 = load i32, i32* %3, align 4
  %24 = sext i32 %23 to i64
  %25 = getelementptr inbounds [10000 x i32], [10000 x i32]* %5, i64 0, i64 %24
  %26 = load i32, i32* %25, align 4
  %27 = add nsw i32 %26, 1
  %28 = icmp sle i32 %22, %27
  br i1 %28, label %29, label %66

29:                                               ; preds = %21
  %30 = getelementptr inbounds [10000 x double], [10000 x double]* %7, i64 0, i64 0
  store double 1.000000e+00, double* %30, align 16
  %31 = getelementptr inbounds [10000 x double], [10000 x double]* %7, i64 0, i64 1
  store double 2.000000e+00, double* %31, align 8
  %32 = load i32, i32* %4, align 4
  %33 = sub nsw i32 %32, 1
  %34 = sext i32 %33 to i64
  %35 = getelementptr inbounds [10000 x double], [10000 x double]* %7, i64 0, i64 %34
  %36 = load double, double* %35, align 8
  %37 = load i32, i32* %4, align 4
  %38 = sub nsw i32 %37, 2
  %39 = sext i32 %38 to i64
  %40 = getelementptr inbounds [10000 x double], [10000 x double]* %7, i64 0, i64 %39
  %41 = load double, double* %40, align 8
  %42 = fadd double %36, %41
  %43 = load i32, i32* %4, align 4
  %44 = sext i32 %43 to i64
  %45 = getelementptr inbounds [10000 x double], [10000 x double]* %7, i64 0, i64 %44
  store double %42, double* %45, align 8
  %46 = load i32, i32* %4, align 4
  %47 = sub nsw i32 %46, 1
  %48 = sext i32 %47 to i64
  %49 = getelementptr inbounds [10000 x double], [10000 x double]* %7, i64 0, i64 %48
  %50 = load double, double* %49, align 8
  %51 = fmul double %50, 1.000000e+00
  %52 = load i32, i32* %4, align 4
  %53 = sub nsw i32 %52, 2
  %54 = sext i32 %53 to i64
  %55 = getelementptr inbounds [10000 x double], [10000 x double]* %7, i64 0, i64 %54
  %56 = load double, double* %55, align 8
  %57 = fdiv double %51, %56
  %58 = load i32, i32* %3, align 4
  %59 = sext i32 %58 to i64
  %60 = getelementptr inbounds [10000 x double], [10000 x double]* %6, i64 0, i64 %59
  %61 = load double, double* %60, align 8
  %62 = fadd double %61, %57
  store double %62, double* %60, align 8
  br label %63

63:                                               ; preds = %29
  %64 = load i32, i32* %4, align 4
  %65 = add nsw i32 %64, 1
  store i32 %65, i32* %4, align 4
  br label %21

66:                                               ; preds = %21
  br label %67

67:                                               ; preds = %66
  %68 = load i32, i32* %3, align 4
  %69 = add nsw i32 %68, 1
  store i32 %69, i32* %3, align 4
  br label %9

70:                                               ; preds = %9
  store i32 0, i32* %3, align 4
  br label %71

71:                                               ; preds = %81, %70
  %72 = load i32, i32* %3, align 4
  %73 = load i32, i32* %2, align 4
  %74 = icmp slt i32 %72, %73
  br i1 %74, label %75, label %84

75:                                               ; preds = %71
  %76 = load i32, i32* %3, align 4
  %77 = sext i32 %76 to i64
  %78 = getelementptr inbounds [10000 x double], [10000 x double]* %6, i64 0, i64 %77
  %79 = load double, double* %78, align 8
  %80 = call i32 (i8*, ...) @printf(i8* getelementptr inbounds ([7 x i8], [7 x i8]* @.str.1, i64 0, i64 0), double %79)
  br label %81

81:                                               ; preds = %75
  %82 = load i32, i32* %3, align 4
  %83 = add nsw i32 %82, 1
  store i32 %83, i32* %3, align 4
  br label %71

84:                                               ; preds = %71
  ret i32 0
}

declare dso_local i32 @__isoc99_scanf(i8*, ...) #1

declare dso_local i32 @printf(i8*, ...) #1


!llvm.module.flags = !{!0}
!llvm.ident = !{!1}

!0 = !{i32 1, !"wchar_size", i32 4}
!1 = !{!"clang version 10.0.0-4ubuntu1 "}
